; Function Attrs: mustprogress nofree norecurse nosync nounwind willreturn memory(argmem: readwrite) uwtable
define noundef nonnull align 4 dereferenceable(16) ptr @_ZN32pxrInternal_v0_24__pxrReserved__10GfMatrix2fmLEd(ptr noundef nonnull returned align 4 dereferenceable(16) %0, double noundef %1) local_unnamed_addr #2 align 2 {
  %3 = load float, ptr %0, align 4
  %4 = fpext float %3 to double
  %5 = fmul double %1, %4
  %6 = fptrunc double %5 to float
  store float %6, ptr %0, align 4
  %7 = getelementptr inbounds nuw i8, ptr %0, i64 4
  %8 = load float, ptr %7, align 4
  %9 = fpext float %8 to double
  %10 = fmul double %1, %9
  %11 = fptrunc double %10 to float
  store float %11, ptr %7, align 4
  %12 = getelementptr inbounds nuw i8, ptr %0, i64 8
  %13 = load float, ptr %12, align 4
  %14 = fpext float %13 to double
  %15 = fmul double %1, %14
  %16 = fptrunc double %15 to float
  store float %16, ptr %12, align 4
  %17 = getelementptr inbounds nuw i8, ptr %0, i64 12
  %18 = load float, ptr %17, align 4
  %19 = fpext float %18 to double
  %20 = fmul double %1, %19
  %21 = fptrunc double %20 to float
  store float %21, ptr %17, align 4
  ret ptr %0
}